; Function Attrs: mustprogress nounwind uwtable
define void @_ZN3gmx14ForceProvidersD2Ev(ptr nocapture noundef nonnull align 8 dereferenceable(8) %0) unnamed_addr #2 align 2 personality ptr @__gxx_personality_v0 {
  %2 = load ptr, ptr %0, align 8
  %.not.i = icmp eq ptr %2, null
  br i1 %.not.i, label %_ZNSt10unique_ptrIN3gmx14ForceProviders4ImplESt14default_deleteIS2_EED2Ev.exit, label %3

3:                                                ; preds = %1
  %4 = load ptr, ptr %2, align 8
  %.not.i.i.i.i.i.i = icmp eq ptr %4, null
  br i1 %.not.i.i.i.i.i.i, label %_ZNKSt14default_deleteIN3gmx14ForceProviders4ImplEEclEPS2_.exit.i, label %5

5:                                                ; preds = %3
  tail call void @_ZdlPv(ptr noundef nonnull %4) #10
  br label %_ZNKSt14default_deleteIN3gmx14ForceProviders4ImplEEclEPS2_.exit.i

_ZNKSt14default_deleteIN3gmx14ForceProviders4ImplEEclEPS2_.exit.i: ; preds = %5, %3
  tail call void @_ZdlPv(ptr noundef nonnull %2) #10
  br label %_ZNSt10unique_ptrIN3gmx14ForceProviders4ImplESt14default_deleteIS2_EED2Ev.exit

_ZNSt10unique_ptrIN3gmx14ForceProviders4ImplESt14default_deleteIS2_EED2Ev.exit: ; preds = %1, %_ZNKSt14default_deleteIN3gmx14ForceProviders4ImplEEclEPS2_.exit.i
  store ptr null, ptr %0, align 8
  ret void
}